target datalayout = "e-m:e-p270:32:32-p271:32:32-p272:64:64-i64:64-i128:128-f80:128-n8:16:32:64-S128"
target triple = "x86_64-pc-linux-gnu"

%struct._lv_global_t = type { i8, i8, %struct.lv_ll_t, ptr, ptr, %struct.lv_ll_t, i8, i32, i32, ptr, %struct.lv_ll_t, ptr, %struct.lv_ll_t, ptr, ptr, i32, ptr, i8, i32, i32, ptr, i32, %struct.lv_timer_state_t, %struct.lv_anim_state_t, %struct.lv_tick_state_t, %struct._lv_draw_buf_handlers_t, %struct._lv_draw_buf_handlers_t, %struct._lv_draw_buf_handlers_t, %struct.lv_ll_t, ptr, ptr, %struct.lv_draw_global_info_t, [4 x %struct.lv_draw_sw_mask_radius_circle_dsc_t], ptr, ptr, ptr, %struct.lv_tlsf_state_t, %struct.lv_ll_t, ptr, ptr, %struct.lv_style_t, i64, ptr, i32, ptr }
%struct.lv_timer_state_t = type { %struct.lv_ll_t, i8, i8, i8, i8, i32, i8, i32, i32, i32, i32, ptr, ptr }
%struct.lv_anim_state_t = type { i8, i8, ptr, %struct.lv_ll_t }
%struct.lv_tick_state_t = type { i32, i8, ptr, ptr }
%struct._lv_draw_buf_handlers_t = type { ptr, ptr, ptr, ptr, ptr, ptr }
%struct.lv_draw_global_info_t = type { ptr, i32, i32, i32, i32, i8 }
%struct.lv_draw_sw_mask_radius_circle_dsc_t = type { ptr, ptr, ptr, ptr, i32, i32, i32 }
%struct.lv_tlsf_state_t = type { ptr, i64, i64, %struct.lv_ll_t }
%struct.lv_ll_t = type { i32, ptr, ptr }
%struct.lv_style_t = type { ptr, i32, i8 }

@lv_global = external global %struct._lv_global_t, align 8

; Function Attrs: nounwind uwtable
define void @lv_timer_periodic_handler() #0 {
  %1 = alloca ptr, align 8
  call void @llvm.lifetime.start.p0(i64 8, ptr %1) #3
  store ptr getelementptr inbounds nuw (%struct._lv_global_t, ptr @lv_global, i32 0, i32 22), ptr %1, align 8, !tbaa !22
  %2 = load ptr, ptr %1, align 8, !tbaa !22
  %3 = getelementptr inbounds nuw %struct.lv_timer_state_t, ptr %2, i32 0, i32 7
  %4 = load i32, ptr %3, align 4, !tbaa !43
  %5 = call i32 @lv_tick_elaps(i32 noundef %4)
  %6 = load ptr, ptr %1, align 8, !tbaa !22
  %7 = getelementptr inbounds nuw %struct.lv_timer_state_t, ptr %6, i32 0, i32 5
  %8 = load i32, ptr %7, align 4, !tbaa !36
  %9 = icmp uge i32 %5, %8
  br i1 %9, label %10, label %15

10:                                               ; preds = %0
  %11 = call i32 @lv_timer_handler()
  %12 = call i32 @lv_tick_get()
  %13 = load ptr, ptr %1, align 8, !tbaa !22
  %14 = getelementptr inbounds nuw %struct.lv_timer_state_t, ptr %13, i32 0, i32 7
  store i32 %12, ptr %14, align 4, !tbaa !43
  br label %15

15:                                               ; preds = %10, %0
  call void @llvm.lifetime.end.p0(i64 8, ptr %1) #3
  ret void
}