; Function Attrs: nounwind uwtable
define void @lv_timer_periodic_handler() local_unnamed_addr #0 {
  %1 = load i32, ptr getelementptr inbounds nuw (i8, ptr @lv_global, i64 252), align 4, !tbaa !42
  %2 = tail call i32 @lv_tick_elaps(i32 noundef %1) #8
  %3 = load i32, ptr getelementptr inbounds nuw (i8, ptr @lv_global, i64 244), align 4, !tbaa !41
  %.not = icmp ult i32 %2, %3
  br i1 %.not, label %7, label %4

4:                                                ; preds = %0
  %5 = tail call i32 @lv_timer_handler()
  %6 = tail call i32 @lv_tick_get() #8
  store i32 %6, ptr getelementptr inbounds nuw (i8, ptr @lv_global, i64 252), align 4, !tbaa !42
  br label %7

7:                                                ; preds = %4, %0
  ret void
}